(lp0
(dp1
S'document'
p2
S'CSIRO063-12268790'
p3
sS'doclength'
p4
I2287
sa(dp5
g2
S'CSIRO063-16421918'
p6
sg4
I599
sa(dp7
g2
S'CSIRO065-01561612'
p8
sg4
I635
sa(dp9
g2
S'CSIRO066-03293205'
p10
sg4
I1094
sa(dp11
g2
S'CSIRO068-04810988'
p12
sg4
I989
sa(dp13
g2
S'CSIRO069-15437241'
p14
sg4
I2406
sa(dp15
g2
S'CSIRO071-13529236'
p16
sg4
I991
sa(dp17
g2
S'CSIRO080-16157471'
p18
sg4
I0
sa(dp19
g2
S'CSIRO080-16159367'
p20
sg4
I0
sa(dp21
g2
S'CSIRO080-16167899'
p22
sg4
I0
sa(dp23
g2
S'CSIRO080-16189328'
p24
sg4
I0
sa(dp25
g2
S'CSIRO080-16191479'
p26
sg4
I0
sa(dp27
g2
S'CSIRO080-16192913'
p28
sg4
I0
sa(dp29
g2
S'CSIRO080-16390608'
p30
sg4
I0
sa(dp31
g2
S'CSIRO081-09159321'
p32
sg4
I278978
sa(dp33
g2
S'CSIRO084-00918990'
p34
sg4
I850
sa(dp35
g2
S'CSIRO084-05928091'
p36
sg4
I151
sa(dp37
g2
S'CSIRO084-05973666'
p38
sg4
I853
sa(dp39
g2
S'CSIRO084-09028567'
p40
sg4
I120
sa(dp41
g2
S'CSIRO084-10051351'
p42
sg4
I95
sa(dp43
g2
S'CSIRO085-04191349'
p44
sg4
I2927
sa(dp45
g2
S'CSIRO086-03680167'
p46
sg4
I557
sa(dp47
g2
S'CSIRO090-02519859'
p48
sg4
I1140
sa(dp49
g2
S'CSIRO092-01798655'
p50
sg4
I508
sa(dp51
g2
S'CSIRO092-02894761'
p52
sg4
I17374
sa(dp53
g2
S'CSIRO093-00204853'
p54
sg4
I246
sa(dp55
g2
S'CSIRO093-07573760'
p56
sg4
I882
sa(dp57
g2
S'CSIRO094-04634425'
p58
sg4
I956
sa(dp59
g2
S'CSIRO101-14223919'
p60
sg4
I357
sa(dp61
g2
S'CSIRO102-04321013'
p62
sg4
I16265
sa(dp63
g2
S'CSIRO104-16244699'
p64
sg4
I8
sa(dp65
g2
S'CSIRO112-05149969'
p66
sg4
I396
sa(dp67
g2
S'CSIRO112-13202732'
p68
sg4
I383
sa(dp69
g2
S'CSIRO112-14413479'
p70
sg4
I15287
sa(dp71
g2
S'CSIRO115-10957636'
p72
sg4
I1264
sa(dp73
g2
S'CSIRO124-12174391'
p74
sg4
I470
sa(dp75
g2
S'CSIRO124-12359962'
p76
sg4
I597
sa(dp77
g2
S'CSIRO124-12770457'
p78
sg4
I384
sa(dp79
g2
S'CSIRO125-11548842'
p80
sg4
I522
sa(dp81
g2
S'CSIRO126-10335334'
p82
sg4
I8
sa(dp83
g2
S'CSIRO127-06797573'
p84
sg4
I4493
sa(dp85
g2
S'CSIRO129-10309081'
p86
sg4
I770
sa(dp87
g2
S'CSIRO129-16466164'
p88
sg4
I680
sa(dp89
g2
S'CSIRO129-16545538'
p90
sg4
I1853
sa(dp91
g2
S'CSIRO129-16628562'
p92
sg4
I273
sa(dp93
g2
S'CSIRO130-00063457'
p94
sg4
I1822
sa(dp95
g2
S'CSIRO130-00195625'
p96
sg4
I1105
sa(dp97
g2
S'CSIRO130-00773576'
p98
sg4
I803
sa(dp99
g2
S'CSIRO130-03853062'
p100
sg4
I678
sa(dp101
g2
S'CSIRO130-04150369'
p102
sg4
I443
sa(dp103
g2
S'CSIRO131-00286503'
p104
sg4
I2467
sa(dp105
g2
S'CSIRO131-05240034'
p106
sg4
I2837
sa(dp107
g2
S'CSIRO131-05276360'
p108
sg4
I368
sa(dp109
g2
S'CSIRO131-05551059'
p110
sg4
I2051
sa(dp111
g2
S'CSIRO131-05668430'
p112
sg4
I5854
sa(dp113
g2
S'CSIRO131-06291763'
p114
sg4
I470
sa(dp115
g2
S'CSIRO131-06342164'
p116
sg4
I488
sa(dp117
g2
S'CSIRO131-10743776'
p118
sg4
I325
sa(dp119
g2
S'CSIRO131-10796117'
p120
sg4
I318
sa(dp121
g2
S'CSIRO131-12185537'
p122
sg4
I358
sa(dp123
g2
S'CSIRO131-12229037'
p124
sg4
I415
sa(dp125
g2
S'CSIRO131-12251338'
p126
sg4
I297
sa(dp127
g2
S'CSIRO131-12453311'
p128
sg4
I304
sa(dp129
g2
S'CSIRO131-12565294'
p130
sg4
I403
sa(dp131
g2
S'CSIRO131-12596833'
p132
sg4
I390
sa(dp133
g2
S'CSIRO131-12699482'
p134
sg4
I438
sa(dp135
g2
S'CSIRO131-12753880'
p136
sg4
I420
sa(dp137
g2
S'CSIRO131-12777641'
p138
sg4
I411
sa(dp139
g2
S'CSIRO131-12850648'
p140
sg4
I453
sa(dp141
g2
S'CSIRO131-12872798'
p142
sg4
I641
sa(dp143
g2
S'CSIRO131-12897049'
p144
sg4
I313
sa(dp145
g2
S'CSIRO131-16721510'
p146
sg4
I1063
sa(dp147
g2
S'CSIRO132-01455556'
p148
sg4
I632
sa(dp149
g2
S'CSIRO132-01480712'
p150
sg4
I1132
sa(dp151
g2
S'CSIRO132-01615773'
p152
sg4
I243
sa(dp153
g2
S'CSIRO132-01702653'
p154
sg4
I243
sa(dp155
g2
S'CSIRO132-02700019'
p156
sg4
I1107
sa(dp157
g2
S'CSIRO132-03191095'
p158
sg4
I493
sa(dp159
g2
S'CSIRO132-07175653'
p160
sg4
I401
sa(dp161
g2
S'CSIRO132-07263415'
p162
sg4
I1120
sa(dp163
g2
S'CSIRO132-09085818'
p164
sg4
I505
sa(dp165
g2
S'CSIRO132-11895269'
p166
sg4
I618
sa(dp167
g2
S'CSIRO132-11919193'
p168
sg4
I1056
sa(dp169
g2
S'CSIRO132-11952760'
p170
sg4
I1245
sa(dp171
g2
S'CSIRO132-14560042'
p172
sg4
I257
sa(dp173
g2
S'CSIRO132-14596615'
p174
sg4
I1114
sa(dp175
g2
S'CSIRO132-14854295'
p176
sg4
I479
sa(dp177
g2
S'CSIRO132-15255187'
p178
sg4
I560
sa(dp179
g2
S'CSIRO132-15320355'
p180
sg4
I473
sa(dp181
g2
S'CSIRO132-15390036'
p182
sg4
I517
sa(dp183
g2
S'CSIRO133-00069480'
p184
sg4
I1107
sa(dp185
g2
S'CSIRO133-01822561'
p186
sg4
I567
sa(dp187
g2
S'CSIRO133-02295937'
p188
sg4
I636
sa(dp189
g2
S'CSIRO133-03375296'
p190
sg4
I303
sa(dp191
g2
S'CSIRO133-04881416'
p192
sg4
I749
sa(dp193
g2
S'CSIRO133-04907302'
p194
sg4
I1101
sa(dp195
g2
S'CSIRO133-04941278'
p196
sg4
I1244
sa(dp197
g2
S'CSIRO133-09856790'
p198
sg4
I1149
sa(dp199
g2
S'CSIRO133-09927606'
p200
sg4
I520
sa(dp201
g2
S'CSIRO133-10151601'
p202
sg4
I618
sa(dp203
g2
S'CSIRO133-10515246'
p204
sg4
I783
sa(dp205
g2
S'CSIRO133-11520197'
p206
sg4
I1096
sa(dp207
g2
S'CSIRO133-11574847'
p208
sg4
I1176
sa(dp209
g2
S'CSIRO134-02469451'
p210
sg4
I338
sa(dp211
g2
S'CSIRO134-05033426'
p212
sg4
I712
sa(dp213
g2
S'CSIRO134-07751458'
p214
sg4
I1112
sa(dp215
g2
S'CSIRO134-08922119'
p216
sg4
I1160
sa(dp217
g2
S'CSIRO134-11500075'
p218
sg4
I586
sa(dp219
g2
S'CSIRO134-11830768'
p220
sg4
I451
sa(dp221
g2
S'CSIRO134-11903180'
p222
sg4
I630
sa(dp223
g2
S'CSIRO134-11984748'
p224
sg4
I461
sa(dp225
g2
S'CSIRO134-12034852'
p226
sg4
I554
sa(dp227
g2
S'CSIRO134-12577583'
p228
sg4
I623
sa(dp229
g2
S'CSIRO134-12681469'
p230
sg4
I493
sa(dp231
g2
S'CSIRO134-12734961'
p232
sg4
I618
sa(dp233
g2
S'CSIRO134-13904277'
p234
sg4
I576
sa(dp235
g2
S'CSIRO134-14241751'
p236
sg4
I632
sa(dp237
g2
S'CSIRO135-01163093'
p238
sg4
I596
sa(dp239
g2
S'CSIRO135-01211798'
p240
sg4
I648
sa(dp241
g2
S'CSIRO135-01262721'
p242
sg4
I444
sa(dp243
g2
S'CSIRO135-01377416'
p244
sg4
I666
sa(dp245
g2
S'CSIRO135-01427234'
p246
sg4
I606
sa(dp247
g2
S'CSIRO135-04106002'
p248
sg4
I598
sa(dp249
g2
S'CSIRO135-05149065'
p250
sg4
I670
sa(dp251
g2
S'CSIRO135-12644434'
p252
sg4
I995
sa(dp253
g2
S'CSIRO135-13787078'
p254
sg4
I11985
sa(dp255
g2
S'CSIRO135-14200166'
p256
sg4
I650
sa(dp257
g2
S'CSIRO136-06425377'
p258
sg4
I4063
sa(dp259
g2
S'CSIRO136-07094003'
p260
sg4
I933
sa(dp261
g2
S'CSIRO137-02500415'
p262
sg4
I473
sa(dp263
g2
S'CSIRO138-00000000'
p264
sg4
I663
sa(dp265
g2
S'CSIRO138-00023148'
p266
sg4
I589
sa(dp267
g2
S'CSIRO138-00045920'
p268
sg4
I597
sa(dp269
g2
S'CSIRO138-00324936'
p270
sg4
I527
sa(dp271
g2
S'CSIRO138-00368059'
p272
sg4
I424
sa(dp273
g2
S'CSIRO138-00864658'
p274
sg4
I436
sa(dp275
g2
S'CSIRO138-01340380'
p276
sg4
I479
sa(dp277
g2
S'CSIRO138-13950052'
p278
sg4
I809
sa(dp279
g2
S'CSIRO138-14589171'
p280
sg4
I925
sa(dp281
g2
S'CSIRO138-15933953'
p282
sg4
I853
sa(dp283
g2
S'CSIRO138-16031141'
p284
sg4
I532
sa(dp285
g2
S'CSIRO139-00126054'
p286
sg4
I833
sa(dp287
g2
S'CSIRO139-00898490'
p288
sg4
I986
sa(dp289
g2
S'CSIRO139-04960548'
p290
sg4
I796
sa(dp291
g2
S'CSIRO139-05999685'
p292
sg4
I875
sa(dp293
g2
S'CSIRO139-08412608'
p294
sg4
I751
sa(dp295
g2
S'CSIRO139-08576080'
p296
sg4
I753
sa(dp297
g2
S'CSIRO139-08803101'
p298
sg4
I774
sa(dp299
g2
S'CSIRO139-11043968'
p300
sg4
I267
sa(dp301
g2
S'CSIRO139-11490655'
p302
sg4
I883
sa(dp303
g2
S'CSIRO139-12012919'
p304
sg4
I810
sa(dp305
g2
S'CSIRO139-12625432'
p306
sg4
I831
sa(dp307
g2
S'CSIRO139-13945406'
p308
sg4
I786
sa(dp309
g2
S'CSIRO139-14077357'
p310
sg4
I824
sa(dp311
g2
S'CSIRO139-14631656'
p312
sg4
I725
sa(dp313
g2
S'CSIRO139-15242770'
p314
sg4
I871
sa(dp315
g2
S'CSIRO139-15723114'
p316
sg4
I574
sa(dp317
g2
S'CSIRO139-15735123'
p318
sg4
I876
sa(dp319
g2
S'CSIRO139-16225396'
p320
sg4
I959
sa(dp321
g2
S'CSIRO139-16264896'
p322
sg4
I800
sa(dp323
g2
S'CSIRO139-16434753'
p324
sg4
I534
sa(dp325
g2
S'CSIRO140-02275138'
p326
sg4
I587
sa(dp327
g2
S'CSIRO140-05307643'
p328
sg4
I627
sa(dp329
g2
S'CSIRO140-05758130'
p330
sg4
I585
sa(dp331
g2
S'CSIRO140-06484033'
p332
sg4
I836
sa(dp333
g2
S'CSIRO140-11713267'
p334
sg4
I617
sa(dp335
g2
S'CSIRO140-11762402'
p336
sg4
I1013
sa(dp337
g2
S'CSIRO140-14699594'
p338
sg4
I594
sa(dp339
g2
S'CSIRO140-14710325'
p340
sg4
I877
sa(dp341
g2
S'CSIRO141-01306006'
p342
sg4
I647
sa(dp343
g2
S'CSIRO141-01749044'
p344
sg4
I851
sa(dp345
g2
S'CSIRO141-05017988'
p346
sg4
I1095
sa(dp347
g2
S'CSIRO141-05514136'
p348
sg4
I576
sa(dp349
g2
S'CSIRO141-12380701'
p350
sg4
I452
sa(dp351
g2
S'CSIRO141-16595363'
p352
sg4
I434
sa(dp353
g2
S'CSIRO142-05442261'
p354
sg4
I328
sa(dp355
g2
S'CSIRO143-04694722'
p356
sg4
I1086
sa(dp357
g2
S'CSIRO143-04904874'
p358
sg4
I1015
sa(dp359
g2
S'CSIRO143-04938426'
p360
sg4
I600
sa(dp361
g2
S'CSIRO143-04964410'
p362
sg4
I1069
sa(dp363
g2
S'CSIRO143-05000504'
p364
sg4
I1191
sa(dp365
g2
S'CSIRO143-06222087'
p366
sg4
I1125
sa(dp367
g2
S'CSIRO143-06256522'
p368
sg4
I1067
sa(dp369
g2
S'CSIRO143-06326150'
p370
sg4
I1150
sa(dp371
g2
S'CSIRO143-06361582'
p372
sg4
I1092
sa(dp373
g2
S'CSIRO143-08253479'
p374
sg4
I1133
sa(dp375
g2
S'CSIRO143-08288718'
p376
sg4
I1075
sa(dp377
g2
S'CSIRO143-13233335'
p378
sg4
I535
sa(dp379
g2
S'CSIRO144-04759979'
p380
sg4
I921
sa(dp381
g2
S'CSIRO144-04905894'
p382
sg4
I259
sa(dp383
g2
S'CSIRO144-04925349'
p384
sg4
I261
sa(dp385
g2
S'CSIRO144-05140025'
p386
sg4
I259
sa(dp387
g2
S'CSIRO144-06045005'
p388
sg4
I1103
sa(dp389
g2
S'CSIRO144-09433010'
p390
sg4
I611
sa(dp391
g2
S'CSIRO144-09895603'
p392
sg4
I711
sa(dp393
g2
S'CSIRO144-10755708'
p394
sg4
I312
sa(dp395
g2
S'CSIRO144-11175582'
p396
sg4
I1002
sa(dp397
g2
S'CSIRO144-11565923'
p398
sg4
I871
sa(dp399
g2
S'CSIRO144-12516997'
p400
sg4
I865
sa(dp401
g2
S'CSIRO144-13309868'
p402
sg4
I925
sa(dp403
g2
S'CSIRO144-14210292'
p404
sg4
I790
sa(dp405
g2
S'CSIRO144-15179677'
p406
sg4
I743
sa(dp407
g2
S'CSIRO145-00429165'
p408
sg4
I683
sa(dp409
g2
S'CSIRO145-02061840'
p410
sg4
I877
sa(dp411
g2
S'CSIRO145-02141752'
p412
sg4
I816
sa(dp413
g2
S'CSIRO145-02213132'
p414
sg4
I889
sa(dp415
g2
S'CSIRO145-02248445'
p416
sg4
I668
sa(dp417
g2
S'CSIRO145-04081935'
p418
sg4
I978
sa(dp419
g2
S'CSIRO145-04117894'
p420
sg4
I917
sa(dp421
g2
S'CSIRO145-04755872'
p422
sg4
I655
sa(dp423
g2
S'CSIRO145-04767447'
p424
sg4
I971
sa(dp425
g2
S'CSIRO145-05056085'
p426
sg4
I919
sa(dp427
g2
S'CSIRO145-05069540'
p428
sg4
I1176
sa(dp429
g2
S'CSIRO145-05108814'
p430
sg4
I917
sa(dp431
g2
S'CSIRO145-05173880'
p432
sg4
I650
sa(dp433
g2
S'CSIRO145-05225156'
p434
sg4
I858
sa(dp435
g2
S'CSIRO145-05534443'
p436
sg4
I1209
sa(dp437
g2
S'CSIRO145-05884559'
p438
sg4
I979
sa(dp439
g2
S'CSIRO145-06454342'
p440
sg4
I991
sa(dp441
g2
S'CSIRO145-06493866'
p442
sg4
I847
sa(dp443
g2
S'CSIRO145-06856110'
p444
sg4
I932
sa(dp445
g2
S'CSIRO145-10228675'
p446
sg4
I798
sa(dp447
g2
S'CSIRO145-10750042'
p448
sg4
I768
sa(dp449
g2
S'CSIRO145-11361941'
p450
sg4
I813
sa(dp451
g2
S'CSIRO145-11557922'
p452
sg4
I754
sa(dp453
g2
S'CSIRO145-11725455'
p454
sg4
I1397
sa(dp455
g2
S'CSIRO145-12250314'
p456
sg4
I879
sa(dp457
g2
S'CSIRO145-12322561'
p458
sg4
I808
sa(dp459
g2
S'CSIRO145-12516153'
p460
sg4
I813
sa(dp461
g2
S'CSIRO145-14070427'
p462
sg4
I731
sa(dp463
g2
S'CSIRO145-14351098'
p464
sg4
I424
sa(dp465
g2
S'CSIRO145-14573066'
p466
sg4
I916
sa(dp467
g2
S'CSIRO145-15096261'
p468
sg4
I842
sa(dp469
g2
S'CSIRO146-00551386'
p470
sg4
I712
sa(dp471
g2
S'CSIRO146-00587153'
p472
sg4
I802
sa(dp473
g2
S'CSIRO146-00732297'
p474
sg4
I305
sa(dp475
g2
S'CSIRO146-07022919'
p476
sg4
I508
sa(dp477
g2
S'CSIRO146-14218036'
p478
sg4
I1034
sa(dp479
g2
S'CSIRO146-16756368'
p480
sg4
I806
sa(dp481
g2
S'CSIRO156-13474993'
p482
sg4
I10414
sa(dp483
g2
S'CSIRO173-13285955'
p484
sg4
I1999
sa(dp485
g2
S'CSIRO180-15517031'
p486
sg4
I136522
sa(dp487
g2
S'CSIRO181-10236586'
p488
sg4
I1363
sa(dp489
g2
S'CSIRO181-15439404'
p490
sg4
I1232
sa(dp491
g2
S'CSIRO183-07728081'
p492
sg4
I1068
sa(dp493
g2
S'CSIRO187-11584501'
p494
sg4
I112
sa(dp495
g2
S'CSIRO191-00635111'
p496
sg4
I241
sa(dp497
g2
S'CSIRO197-02129838'
p498
sg4
I13589
sa(dp499
g2
S'CSIRO205-15585834'
p500
sg4
I1917
sa(dp501
g2
S'CSIRO254-16230461'
p502
sg4
I0
sa(dp503
g2
S'CSIRO265-01473951'
p504
sg4
I297
sa(dp505
g2
S'CSIRO265-01515181'
p506
sg4
I294
sa(dp507
g2
S'CSIRO265-12782890'
p508
sg4
I622
sa(dp509
g2
S'CSIRO265-14465659'
p510
sg4
I554
sa(dp511
g2
S'CSIRO265-14667001'
p512
sg4
I958
sa(dp513
g2
S'CSIRO265-14779177'
p514
sg4
I776
sa(dp515
g2
S'CSIRO265-15201516'
p516
sg4
I35
sa(dp517
g2
S'CSIRO265-15922112'
p518
sg4
I188
sa(dp519
g2
S'CSIRO265-16023920'
p520
sg4
I47
sa(dp521
g2
S'CSIRO265-16107985'
p522
sg4
I481
sa(dp523
g2
S'CSIRO265-16625137'
p524
sg4
I440
sa(dp525
g2
S'CSIRO266-00310534'
p526
sg4
I42
sa.